; Function Attrs: nounwind uwtable
define void @Cec3_ObjAddToFrontier(ptr noundef readonly captures(none) %0, ptr noundef %1, ptr noundef captures(none) %2, ptr noundef %3) local_unnamed_addr #2 {
  %5 = getelementptr i8, ptr %0, i64 32
  %.val = load ptr, ptr %5, align 8, !tbaa !11
  %6 = getelementptr i8, ptr %0, i64 416
  %.val8 = load ptr, ptr %6, align 8, !tbaa !33
  %7 = ptrtoint ptr %1 to i64
  %8 = ptrtoint ptr %.val to i64
  %9 = sub i64 %7, %8
  %10 = sdiv exact i64 %9, 12
  %sext.i = shl i64 %10, 32
  %11 = ashr exact i64 %sext.i, 30
  %12 = getelementptr inbounds i8, ptr %.val8, i64 %11
  %13 = load i32, ptr %12, align 4, !tbaa !34
  %14 = icmp sgt i32 %13, -1
  br i1 %14, label %57, label %15

15:                                               ; preds = %4
  %16 = tail call i32 @bmcg_sat_solver_addvar(ptr noundef %3) #22
  %.val9 = load ptr, ptr %5, align 8, !tbaa !11
  %.val10 = load ptr, ptr %6, align 8, !tbaa !33
  %17 = ptrtoint ptr %.val9 to i64
  %18 = sub i64 %7, %17
  %19 = sdiv exact i64 %18, 12
  %sext.i12 = shl i64 %19, 32
  %20 = ashr exact i64 %sext.i12, 30
  %21 = getelementptr inbounds i8, ptr %.val10, i64 %20
  store i32 %16, ptr %21, align 4, !tbaa !34
  %.val11 = load i64, ptr %1, align 4
  %22 = and i64 %.val11, 2147483648
  %.not.i = icmp ne i64 %22, 0
  %23 = and i64 %.val11, 536870911
  %24 = icmp eq i64 %23, 536870911
  %narrow.i.not = or i1 %.not.i, %24
  br i1 %narrow.i.not, label %57, label %25

25:                                               ; preds = %15
  %26 = getelementptr inbounds nuw i8, ptr %2, i64 4
  %27 = load i32, ptr %26, align 4, !tbaa !36
  %28 = load i32, ptr %2, align 8, !tbaa !46
  %29 = icmp eq i32 %27, %28
  br i1 %29, label %30, label %.Vec_PtrGrow.exit11_crit_edge.i

.Vec_PtrGrow.exit11_crit_edge.i:                  ; preds = %25
  %.phi.trans.insert.i = getelementptr inbounds nuw i8, ptr %2, i64 8
  %.pre.i = load ptr, ptr %.phi.trans.insert.i, align 8, !tbaa !38
  br label %Vec_PtrPush.exit

30:                                               ; preds = %25
  %31 = icmp slt i32 %27, 16
  br i1 %31, label %32, label %40

32:                                               ; preds = %30
  %33 = getelementptr inbounds nuw i8, ptr %2, i64 8
  %34 = load ptr, ptr %33, align 8, !tbaa !38
  %.not9.i.i = icmp eq ptr %34, null
  br i1 %.not9.i.i, label %37, label %35

35:                                               ; preds = %32
  %36 = tail call dereferenceable_or_null(128) ptr @realloc(ptr noundef nonnull %34, i64 noundef 128) #24
  br label %Vec_PtrGrow.exit.i

37:                                               ; preds = %32
  %38 = tail call noalias dereferenceable_or_null(128) ptr @malloc(i64 noundef 128) #23
  br label %Vec_PtrGrow.exit.i

Vec_PtrGrow.exit.i:                               ; preds = %37, %35
  %39 = phi ptr [ %36, %35 ], [ %38, %37 ]
  store ptr %39, ptr %33, align 8, !tbaa !38
  store i32 16, ptr %2, align 8, !tbaa !46
  br label %Vec_PtrPush.exit

40:                                               ; preds = %30
  %41 = shl nuw nsw i32 %27, 1
  %42 = getelementptr inbounds nuw i8, ptr %2, i64 8
  %43 = load ptr, ptr %42, align 8, !tbaa !38
  %.not9.i10.i = icmp eq ptr %43, null
  %44 = zext nneg i32 %41 to i64
  %45 = shl nuw nsw i64 %44, 3
  br i1 %.not9.i10.i, label %48, label %46

46:                                               ; preds = %40
  %47 = tail call ptr @realloc(ptr noundef nonnull %43, i64 noundef %45) #24
  br label %50

48:                                               ; preds = %40
  %49 = tail call noalias ptr @malloc(i64 noundef %45) #23
  br label %50

50:                                               ; preds = %48, %46
  %51 = phi ptr [ %47, %46 ], [ %49, %48 ]
  store ptr %51, ptr %42, align 8, !tbaa !38
  store i32 %41, ptr %2, align 8, !tbaa !46
  br label %Vec_PtrPush.exit

Vec_PtrPush.exit:                                 ; preds = %.Vec_PtrGrow.exit11_crit_edge.i, %Vec_PtrGrow.exit.i, %50
  %52 = phi ptr [ %.pre.i, %.Vec_PtrGrow.exit11_crit_edge.i ], [ %51, %50 ], [ %39, %Vec_PtrGrow.exit.i ]
  %53 = load i32, ptr %26, align 4, !tbaa !36
  %54 = add nsw i32 %53, 1
  store i32 %54, ptr %26, align 4, !tbaa !36
  %55 = sext i32 %53 to i64
  %56 = getelementptr inbounds ptr, ptr %52, i64 %55
  store ptr %1, ptr %56, align 8, !tbaa !39
  br label %57

57:                                               ; preds = %4, %Vec_PtrPush.exit, %15
  ret void
}